target datalayout = "e-m:e-p270:32:32-p271:32:32-p272:64:64-i64:64-i128:128-f80:128-n8:16:32:64-S128"
target triple = "x86_64-pc-linux-gnu"

%"class.cv::WBaseStream" = type { ptr, ptr, ptr, ptr, i32, i32, ptr, i8, ptr }

; Function Attrs: mustprogress uwtable
define hidden noundef zeroext i1 @_ZN2cv12WLByteStream7putByteEi(ptr noundef nonnull align 8 dereferenceable(64) %0, i32 noundef %1) #1 align 2 {
  %3 = alloca i1, align 1
  %4 = alloca ptr, align 8
  %5 = alloca i32, align 4
  store ptr %0, ptr %4, align 8, !tbaa !75
  store i32 %1, ptr %5, align 4, !tbaa !27
  %6 = load ptr, ptr %4, align 8
  %7 = load i32, ptr %5, align 4, !tbaa !27
  %8 = trunc i32 %7 to i8
  %9 = getelementptr inbounds nuw %"class.cv::WBaseStream", ptr %6, i32 0, i32 3
  %10 = load ptr, ptr %9, align 8, !tbaa !61
  %11 = getelementptr inbounds nuw i8, ptr %10, i32 1
  store ptr %11, ptr %9, align 8, !tbaa !61
  store i8 %8, ptr %10, align 1, !tbaa !52
  %12 = getelementptr inbounds nuw %"class.cv::WBaseStream", ptr %6, i32 0, i32 3
  %13 = load ptr, ptr %12, align 8, !tbaa !61
  %14 = getelementptr inbounds nuw %"class.cv::WBaseStream", ptr %6, i32 0, i32 2
  %15 = load ptr, ptr %14, align 8, !tbaa !64
  %16 = icmp uge ptr %13, %15
  br i1 %16, label %17, label %22

17:                                               ; preds = %2
  %18 = load ptr, ptr %6, align 8, !tbaa !21
  %19 = getelementptr inbounds ptr, ptr %18, i64 5
  %20 = load ptr, ptr %19, align 8
  %21 = call noundef zeroext i1 %20(ptr noundef nonnull align 8 dereferenceable(64) %6)
  store i1 %21, ptr %3, align 1
  br label %23

22:                                               ; preds = %2
  store i1 true, ptr %3, align 1
  br label %23

23:                                               ; preds = %22, %17
  %24 = load i1, ptr %3, align 1
  ret i1 %24
}