; Function Attrs: mustprogress uwtable
define hidden noundef zeroext i1 @_ZN2cv12WLByteStream7putByteEi(ptr noundef nonnull align 8 dereferenceable(64) %0, i32 noundef %1) local_unnamed_addr #1 align 2 {
  %3 = trunc i32 %1 to i8
  %4 = getelementptr inbounds nuw i8, ptr %0, i64 24
  %5 = load ptr, ptr %4, align 8, !tbaa !55
  %6 = getelementptr inbounds nuw i8, ptr %5, i64 1
  store ptr %6, ptr %4, align 8, !tbaa !55
  store i8 %3, ptr %5, align 1, !tbaa !42
  %7 = load ptr, ptr %4, align 8, !tbaa !55
  %8 = getelementptr inbounds nuw i8, ptr %0, i64 16
  %9 = load ptr, ptr %8, align 8, !tbaa !54
  %.not = icmp ult ptr %7, %9
  br i1 %.not, label %15, label %10

10:                                               ; preds = %2
  %11 = load ptr, ptr %0, align 8, !tbaa !19
  %12 = getelementptr inbounds nuw i8, ptr %11, i64 40
  %13 = load ptr, ptr %12, align 8
  %14 = tail call noundef zeroext i1 %13(ptr noundef nonnull align 8 dereferenceable(64) %0)
  br label %15

15:                                               ; preds = %2, %10
  %.0 = phi i1 [ %14, %10 ], [ true, %2 ]
  ret i1 %.0
}